target datalayout = "e-m:e-p270:32:32-p271:32:32-p272:64:64-i64:64-i128:128-f80:128-n8:16:32:64-S128"
target triple = "x86_64-pc-linux-gnu"

%struct._packet_info = type { ptr, ptr, i32, i32, %struct.nstime_t, %struct.nstime_t, %struct.nstime_t, i8, ptr, ptr, ptr, ptr, %struct._address, %struct._address, %struct._address, %struct._address, %struct._address, %struct._address, i32, ptr, i8, [3 x i8], %struct.anon, i32, i32, i32, i32, ptr, i8, ptr, ptr, i16, i16, i32, i32, i16, i32, i32, ptr, ptr, ptr, i8, i8, i16, i16, i16, i32, i16, i16, ptr, ptr, ptr, ptr, ptr, i32, i32 }
%struct.nstime_t = type { i64, i32 }
%struct._address = type { i32, i32, ptr, ptr }
%struct.anon = type { i8, [3 x i8] }
%struct._asn1_ctx_t = type { i32, i32, i8, ptr, ptr, ptr, ptr, ptr, %struct.anon.0, %struct.anon.3, %struct.anon.4, ptr }
%struct.anon.0 = type { i32, i8, i8, i8, ptr, ptr, i32, i32, ptr, ptr, ptr, %union.anon }
%union.anon = type { %struct.anon.1 }
%struct.anon.1 = type { ptr }
%struct.anon.3 = type { ptr, ptr, ptr }
%struct.anon.4 = type { i32, i8, ptr, i32, i32, ptr, ptr, ptr, %union.anon.5 }
%union.anon.5 = type { %struct.anon.6 }
%struct.anon.6 = type { ptr }

@.str.169 = private unnamed_addr constant [3 x i8] c"%s\00", align 1
@.str.174 = private unnamed_addr constant [24 x i8] c"[OpcUa Null ByteString]\00", align 1
@.str.175 = private unnamed_addr constant [25 x i8] c"[OpcUa Empty ByteString]\00", align 1
@.str.176 = private unnamed_addr constant [40 x i8] c"[Invalid ByteString] Invalid length: %d\00", align 1

; Function Attrs: null_pointer_is_valid sspstrong uwtable
define hidden void @parseCertificate(ptr noundef %0, ptr noundef %1, ptr noundef %2, ptr noundef %3, i32 noundef %4) #0 {
  %6 = alloca ptr, align 8
  %7 = alloca ptr, align 8
  %8 = alloca ptr, align 8
  %9 = alloca ptr, align 8
  %10 = alloca i32, align 4
  %11 = alloca ptr, align 8
  %12 = alloca ptr, align 8
  %13 = alloca i32, align 4
  %14 = alloca i32, align 4
  %15 = alloca %struct._asn1_ctx_t, align 8
  store ptr %0, ptr %6, align 8
  store ptr %1, ptr %7, align 8
  store ptr %2, ptr %8, align 8
  store ptr %3, ptr %9, align 8
  store i32 %4, ptr %10, align 4
  call void @llvm.lifetime.start.p0(i64 8, ptr %11) #3
  store ptr null, ptr %11, align 8
  call void @llvm.lifetime.start.p0(i64 8, ptr %12) #3
  call void @llvm.lifetime.start.p0(i64 4, ptr %13) #3
  %16 = load ptr, ptr %9, align 8
  %17 = load i32, ptr %16, align 4
  store i32 %17, ptr %13, align 4
  call void @llvm.lifetime.start.p0(i64 4, ptr %14) #3
  %18 = load ptr, ptr %7, align 8
  %19 = load i32, ptr %13, align 4
  %20 = call i32 @tvb_get_letohl(ptr noundef %18, i32 noundef %19)
  store i32 %20, ptr %14, align 4
  %21 = load i32, ptr %13, align 4
  %22 = add i32 %21, 4
  store i32 %22, ptr %13, align 4
  %23 = load i32, ptr %14, align 4
  %24 = icmp eq i32 %23, -1
  br i1 %24, label %25, label %33

25:                                               ; preds = %5
  %26 = load ptr, ptr %6, align 8
  %27 = load i32, ptr %10, align 4
  %28 = load ptr, ptr %7, align 8
  %29 = load ptr, ptr %9, align 8
  %30 = load i32, ptr %29, align 4
  %31 = call ptr @proto_tree_add_bytes_with_length(ptr noundef %26, i32 noundef %27, ptr noundef %28, i32 noundef %30, i32 noundef 4, ptr noundef null, i32 noundef 0)
  store ptr %31, ptr %11, align 8
  %32 = load ptr, ptr %11, align 8
  call void (ptr, ptr, ...) @proto_item_append_text(ptr noundef %32, ptr noundef @.str.174)
  br label %73

33:                                               ; preds = %5
  %34 = load i32, ptr %14, align 4
  %35 = icmp eq i32 %34, 0
  br i1 %35, label %36, label %44

36:                                               ; preds = %33
  %37 = load ptr, ptr %6, align 8
  %38 = load i32, ptr %10, align 4
  %39 = load ptr, ptr %7, align 8
  %40 = load ptr, ptr %9, align 8
  %41 = load i32, ptr %40, align 4
  %42 = call ptr @proto_tree_add_bytes_with_length(ptr noundef %37, i32 noundef %38, ptr noundef %39, i32 noundef %41, i32 noundef 4, ptr noundef null, i32 noundef 0)
  store ptr %42, ptr %11, align 8
  %43 = load ptr, ptr %11, align 8
  call void (ptr, ptr, ...) @proto_item_append_text(ptr noundef %43, ptr noundef @.str.175)
  br label %72

44:                                               ; preds = %33
  %45 = load i32, ptr %14, align 4
  %46 = icmp sgt i32 %45, 0
  br i1 %46, label %47, label %57

47:                                               ; preds = %44
  call void @llvm.lifetime.start.p0(i64 208, ptr %15) #3
  %48 = load ptr, ptr %8, align 8
  call void @asn1_ctx_init(ptr noundef %15, i32 noundef 0, i1 noundef zeroext true, ptr noundef %48)
  %49 = load ptr, ptr %7, align 8
  %50 = load i32, ptr %13, align 4
  %51 = load ptr, ptr %6, align 8
  %52 = load i32, ptr %10, align 4
  %53 = call i32 @dissect_x509af_Certificate(i1 noundef zeroext false, ptr noundef %49, i32 noundef %50, ptr noundef %15, ptr noundef %51, i32 noundef %52)
  %54 = load i32, ptr %14, align 4
  %55 = load i32, ptr %13, align 4
  %56 = add i32 %55, %54
  store i32 %56, ptr %13, align 4
  call void @llvm.lifetime.end.p0(i64 208, ptr %15) #3
  br label %71

57:                                               ; preds = %44
  %58 = load ptr, ptr %6, align 8
  %59 = load i32, ptr %10, align 4
  %60 = load ptr, ptr %7, align 8
  %61 = load ptr, ptr %9, align 8
  %62 = load i32, ptr %61, align 4
  %63 = call ptr @proto_tree_add_bytes_with_length(ptr noundef %58, i32 noundef %59, ptr noundef %60, i32 noundef %62, i32 noundef 4, ptr noundef null, i32 noundef 0)
  store ptr %63, ptr %11, align 8
  %64 = load ptr, ptr %8, align 8
  %65 = getelementptr inbounds nuw %struct._packet_info, ptr %64, i32 0, i32 51
  %66 = load ptr, ptr %65, align 8
  %67 = load i32, ptr %14, align 4
  %68 = call noalias ptr (ptr, ptr, ...) @wmem_strdup_printf(ptr noundef %66, ptr noundef @.str.176, i32 noundef %67)
  store ptr %68, ptr %12, align 8
  %69 = load ptr, ptr %11, align 8
  %70 = load ptr, ptr %12, align 8
  call void (ptr, ptr, ...) @proto_item_append_text(ptr noundef %69, ptr noundef @.str.169, ptr noundef %70)
  br label %71

71:                                               ; preds = %57, %47
  br label %72

72:                                               ; preds = %71, %36
  br label %73

73:                                               ; preds = %72, %25
  %74 = load i32, ptr %13, align 4
  %75 = load ptr, ptr %9, align 8
  store i32 %74, ptr %75, align 4
  call void @llvm.lifetime.end.p0(i64 4, ptr %14) #3
  call void @llvm.lifetime.end.p0(i64 4, ptr %13) #3
  call void @llvm.lifetime.end.p0(i64 8, ptr %12) #3
  call void @llvm.lifetime.end.p0(i64 8, ptr %11) #3
  ret void
}