; Function Attrs: null_pointer_is_valid sspstrong uwtable
define hidden void @parseCertificate(ptr noundef %0, ptr noundef %1, ptr noundef %2, ptr noundef captures(none) %3, i32 noundef %4) local_unnamed_addr #0 {
  %6 = alloca %struct._asn1_ctx_t, align 8
  %7 = load i32, ptr %3, align 4
  %8 = tail call i32 @tvb_get_letohl(ptr noundef %1, i32 noundef %7)
  %9 = add i32 %7, 4
  switch i32 %8, label %16 [
    i32 -1, label %10
    i32 0, label %13
  ]

10:                                               ; preds = %5
  %11 = load i32, ptr %3, align 4
  %12 = tail call ptr @proto_tree_add_bytes_with_length(ptr noundef %0, i32 noundef %4, ptr noundef %1, i32 noundef %11, i32 noundef 4, ptr noundef null, i32 noundef 0)
  tail call void (ptr, ptr, ...) @proto_item_append_text(ptr noundef %12, ptr noundef nonnull @.str.174)
  br label %27

13:                                               ; preds = %5
  %14 = load i32, ptr %3, align 4
  %15 = tail call ptr @proto_tree_add_bytes_with_length(ptr noundef %0, i32 noundef %4, ptr noundef %1, i32 noundef %14, i32 noundef 4, ptr noundef null, i32 noundef 0)
  tail call void (ptr, ptr, ...) @proto_item_append_text(ptr noundef %15, ptr noundef nonnull @.str.175)
  br label %27

16:                                               ; preds = %5
  %17 = icmp sgt i32 %8, 0
  br i1 %17, label %18, label %21

18:                                               ; preds = %16
  call void @llvm.lifetime.start.p0(i64 208, ptr nonnull %6) #4
  call void @asn1_ctx_init(ptr noundef nonnull %6, i32 noundef 0, i1 noundef zeroext true, ptr noundef %2)
  %19 = call i32 @dissect_x509af_Certificate(i1 noundef zeroext false, ptr noundef %1, i32 noundef %9, ptr noundef nonnull %6, ptr noundef %0, i32 noundef %4)
  %20 = add i32 %9, %8
  call void @llvm.lifetime.end.p0(i64 208, ptr nonnull %6) #4
  br label %27

21:                                               ; preds = %16
  %22 = load i32, ptr %3, align 4
  %23 = tail call ptr @proto_tree_add_bytes_with_length(ptr noundef %0, i32 noundef %4, ptr noundef %1, i32 noundef %22, i32 noundef 4, ptr noundef null, i32 noundef 0)
  %24 = getelementptr inbounds nuw i8, ptr %2, i64 408
  %25 = load ptr, ptr %24, align 8
  %26 = tail call noalias ptr (ptr, ptr, ...) @wmem_strdup_printf(ptr noundef %25, ptr noundef nonnull @.str.176, i32 noundef %8)
  tail call void (ptr, ptr, ...) @proto_item_append_text(ptr noundef %23, ptr noundef nonnull @.str.169, ptr noundef %26)
  br label %27

27:                                               ; preds = %13, %21, %18, %10
  %.0 = phi i32 [ %9, %10 ], [ %9, %13 ], [ %20, %18 ], [ %9, %21 ]
  store i32 %.0, ptr %3, align 4
  ret void
}